; ModuleID = '98.c'
source_filename = "98.c"
target datalayout = "e-m:e-p270:32:32-p271:32:32-p272:64:64-i64:64-f80:128-n8:16:32:64-S128"
target triple = "x86_64-pc-linux-gnu"

@.str = private unnamed_addr constant [3 x i8] c"%d\00", align 1
@.str.1 = private unnamed_addr constant [12 x i8] c"%lf %lf %lf\00", align 1
@.str.2 = private unnamed_addr constant [32 x i8] c"x1=%.5lf+%.5lfi;x2=%.5lf%.5lfi\0A\00", align 1
@.str.3 = private unnamed_addr constant [19 x i8] c"x1=%.5lf;x2=%.5lf\0A\00", align 1
@.str.4 = private unnamed_addr constant [13 x i8] c"x1=x2=%.5lf\0A\00", align 1

; Function Attrs: noinline nounwind uwtable
define dso_local void @main() #0 {
  %1 = alloca i32, align 4
  %2 = alloca i32, align 4
  %3 = alloca double, align 8
  %4 = alloca double, align 8
  %5 = alloca double, align 8
  %6 = alloca double, align 8
  %7 = alloca double, align 8
  %8 = alloca double, align 8
  %9 = alloca double, align 8
  %10 = alloca double, align 8
  %11 = call i32 (i8*, ...) @__isoc99_scanf(i8* getelementptr inbounds ([3 x i8], [3 x i8]* @.str, i64 0, i64 0), i32* %1)
  store i32 0, i32* %2, align 4
  br label %12

12:                                               ; preds = %79, %0
  %13 = load i32, i32* %2, align 4
  %14 = load i32, i32* %1, align 4
  %15 = icmp slt i32 %13, %14
  br i1 %15, label %16, label %82

16:                                               ; preds = %12
  %17 = call i32 (i8*, ...) @__isoc99_scanf(i8* getelementptr inbounds ([12 x i8], [12 x i8]* @.str.1, i64 0, i64 0), double* %3, double* %4, double* %5)
  %18 = load double, double* %4, align 8
  %19 = load double, double* %4, align 8
  %20 = fmul double %18, %19
  %21 = load double, double* %3, align 8
  %22 = fmul double 4.000000e+00, %21
  %23 = load double, double* %5, align 8
  %24 = fmul double %22, %23
  %25 = fsub double %20, %24
  store double %25, double* %6, align 8
  %26 = load double, double* %6, align 8
  %27 = fneg double %26
  %28 = call double @sqrt(double %27) #3
  %29 = load double, double* %3, align 8
  %30 = fmul double 2.000000e+00, %29
  %31 = fdiv double %28, %30
  store double %31, double* %9, align 8
  %32 = load double, double* %4, align 8
  %33 = fneg double %32
  %34 = load double, double* %3, align 8
  %35 = fmul double 2.000000e+00, %34
  %36 = fdiv double %33, %35
  store double %36, double* %10, align 8
  %37 = load double, double* %6, align 8
  %38 = fcmp olt double %37, -1.000000e+02
  br i1 %38, label %39, label %46

39:                                               ; preds = %16
  %40 = load double, double* %10, align 8
  %41 = load double, double* %9, align 8
  %42 = load double, double* %10, align 8
  %43 = load double, double* %9, align 8
  %44 = fneg double %43
  %45 = call i32 (i8*, ...) @printf(i8* getelementptr inbounds ([32 x i8], [32 x i8]* @.str.2, i64 0, i64 0), double %40, double %41, double %42, double %44)
  br label %78

46:                                               ; preds = %16
  %47 = load double, double* %6, align 8
  %48 = fcmp ogt double %47, 1.000000e+02
  br i1 %48, label %49, label %69

49:                                               ; preds = %46
  %50 = load double, double* %4, align 8
  %51 = fneg double %50
  %52 = load double, double* %6, align 8
  %53 = call double @sqrt(double %52) #3
  %54 = fadd double %51, %53
  %55 = load double, double* %3, align 8
  %56 = fmul double 2.000000e+00, %55
  %57 = fdiv double %54, %56
  store double %57, double* %7, align 8
  %58 = load double, double* %4, align 8
  %59 = fneg double %58
  %60 = load double, double* %6, align 8
  %61 = call double @sqrt(double %60) #3
  %62 = fsub double %59, %61
  %63 = load double, double* %3, align 8
  %64 = fmul double 2.000000e+00, %63
  %65 = fdiv double %62, %64
  store double %65, double* %8, align 8
  %66 = load double, double* %7, align 8
  %67 = load double, double* %8, align 8
  %68 = call i32 (i8*, ...) @printf(i8* getelementptr inbounds ([19 x i8], [19 x i8]* @.str.3, i64 0, i64 0), double %66, double %67)
  br label %77

69:                                               ; preds = %46
  %70 = load double, double* %4, align 8
  %71 = fneg double %70
  %72 = load double, double* %3, align 8
  %73 = fmul double 2.000000e+00, %72
  %74 = fdiv double %71, %73
  store double %74, double* %7, align 8
  %75 = load double, double* %7, align 8
  %76 = call i32 (i8*, ...) @printf(i8* getelementptr inbounds ([13 x i8], [13 x i8]* @.str.4, i64 0, i64 0), double %75)
  br label %77

77:                                               ; preds = %69, %49
  br label %78

78:                                               ; preds = %77, %39
  br label %79

79:                                               ; preds = %78
  %80 = load i32, i32* %2, align 4
  %81 = add nsw i32 %80, 1
  store i32 %81, i32* %2, align 4
  br label %12

82:                                               ; preds = %12
  ret void
}

declare dso_local i32 @__isoc99_scanf(i8*, ...) #1

; Function Attrs: nounwind
declare dso_local double @sqrt(double) #2

declare dso_local i32 @printf(i8*, ...) #1


!llvm.module.flags = !{!0}
!llvm.ident = !{!1}

!0 = !{i32 1, !"wchar_size", i32 4}
!1 = !{!"clang version 10.0.0-4ubuntu1 "}
